target datalayout = "e-m:e-p270:32:32-p271:32:32-p272:64:64-i64:64-i128:128-f80:128-n8:16:32:64-S128"
target triple = "x86_64-pc-linux-gnu"

%struct._packet_info = type { ptr, ptr, i32, i32, %struct.nstime_t, %struct.nstime_t, %struct.nstime_t, i8, ptr, ptr, ptr, ptr, %struct._address, %struct._address, %struct._address, %struct._address, %struct._address, %struct._address, i32, ptr, i8, [3 x i8], %struct.anon.1, i32, i32, i32, i32, ptr, i8, ptr, ptr, i16, i16, i32, i32, i16, i32, i32, ptr, ptr, ptr, i8, i8, i16, i16, i16, i32, i16, i16, ptr, ptr, ptr, ptr, ptr, i32, i32 }
%struct.nstime_t = type { i64, i32 }
%struct._address = type { i32, i32, ptr, ptr }
%struct.anon.1 = type { i8, [3 x i8] }
%struct._exp_pdu_data_t = type { i32, ptr, i32, i32, ptr }

@hf_ah_next_header = internal global i32 0, align 4
@hf_ah_length = internal global i32 0, align 4
@hf_ah_reserved = internal global i32 0, align 4
@hf_ah_spi = internal global i32 0, align 4
@hf_ah_iv = internal global i32 0, align 4
@hf_ah_sequence = internal global i32 0, align 4
@ett_ah = internal global i32 0, align 4
@.str.102 = private unnamed_addr constant [3 x i8] c"AH\00", align 1
@proto_ah = internal global i32 0, align 4
@data_handle = internal global ptr null, align 8
@ip_dissector_table = internal global ptr null, align 8
@exported_pdu_tap = internal global i32 -1, align 4
@.str.227 = private unnamed_addr constant [12 x i8] c" (%u bytes)\00", align 1
@.str.228 = private unnamed_addr constant [16 x i8] c"AH (SPI=0x%08x)\00", align 1

; Function Attrs: null_pointer_is_valid sspstrong uwtable
define internal void @export_ipsec_pdu(ptr noundef %0, ptr noundef %1, ptr noundef %2) #0 {
  %4 = alloca ptr, align 8
  %5 = alloca ptr, align 8
  %6 = alloca ptr, align 8
  %7 = alloca ptr, align 8
  store ptr %0, ptr %4, align 8
  store ptr %1, ptr %5, align 8
  store ptr %2, ptr %6, align 8
  %8 = load i32, ptr @exported_pdu_tap, align 4
  %9 = call zeroext i1 @have_tap_listener(i32 noundef %8)
  br i1 %9, label %10, label %29

10:                                               ; preds = %3
  call void @llvm.lifetime.start.p0(i64 8, ptr %7) #17
  %11 = load ptr, ptr %5, align 8
  %12 = load ptr, ptr %4, align 8
  %13 = call ptr @dissector_handle_get_dissector_name(ptr noundef %12)
  %14 = call ptr @export_pdu_create_common_tags(ptr noundef %11, ptr noundef %13, i16 noundef zeroext 12)
  store ptr %14, ptr %7, align 8
  %15 = load ptr, ptr %6, align 8
  %16 = call i32 @tvb_captured_length(ptr noundef %15)
  %17 = load ptr, ptr %7, align 8
  %18 = getelementptr inbounds nuw %struct._exp_pdu_data_t, ptr %17, i32 0, i32 2
  store i32 %16, ptr %18, align 8
  %19 = load ptr, ptr %6, align 8
  %20 = call i32 @tvb_reported_length(ptr noundef %19)
  %21 = load ptr, ptr %7, align 8
  %22 = getelementptr inbounds nuw %struct._exp_pdu_data_t, ptr %21, i32 0, i32 3
  store i32 %20, ptr %22, align 4
  %23 = load ptr, ptr %6, align 8
  %24 = load ptr, ptr %7, align 8
  %25 = getelementptr inbounds nuw %struct._exp_pdu_data_t, ptr %24, i32 0, i32 4
  store ptr %23, ptr %25, align 8
  %26 = load i32, ptr @exported_pdu_tap, align 4
  %27 = load ptr, ptr %5, align 8
  %28 = load ptr, ptr %7, align 8
  call void @tap_queue_packet(i32 noundef %26, ptr noundef %27, ptr noundef %28)
  call void @llvm.lifetime.end.p0(i64 8, ptr %7) #17
  br label %29

29:                                               ; preds = %10, %3
  ret void
}

; Function Attrs: null_pointer_is_valid sspstrong uwtable
define internal i32 @dissect_ah(ptr noundef %0, ptr noundef %1, ptr noundef %2, ptr noundef %3) #0 {
  %5 = alloca ptr, align 8
  %6 = alloca ptr, align 8
  %7 = alloca ptr, align 8
  %8 = alloca ptr, align 8
  %9 = alloca ptr, align 8
  %10 = alloca ptr, align 8
  %11 = alloca ptr, align 8
  %12 = alloca ptr, align 8
  %13 = alloca i32, align 4
  %14 = alloca i8, align 1
  %15 = alloca i32, align 4
  %16 = alloca i32, align 4
  %17 = alloca i32, align 4
  %18 = alloca ptr, align 8
  %19 = alloca ptr, align 8
  %20 = alloca i32, align 4
  store ptr %0, ptr %5, align 8
  store ptr %1, ptr %6, align 8
  store ptr %2, ptr %7, align 8
  store ptr %3, ptr %8, align 8
  call void @llvm.lifetime.start.p0(i64 8, ptr %9) #17
  call void @llvm.lifetime.start.p0(i64 8, ptr %10) #17
  call void @llvm.lifetime.start.p0(i64 8, ptr %11) #17
  call void @llvm.lifetime.start.p0(i64 8, ptr %12) #17
  call void @llvm.lifetime.start.p0(i64 4, ptr %13) #17
  call void @llvm.lifetime.start.p0(i64 1, ptr %14) #17
  call void @llvm.lifetime.start.p0(i64 4, ptr %15) #17
  call void @llvm.lifetime.start.p0(i64 4, ptr %16) #17
  call void @llvm.lifetime.start.p0(i64 4, ptr %17) #17
  call void @llvm.lifetime.start.p0(i64 8, ptr %18) #17
  call void @llvm.lifetime.start.p0(i64 8, ptr %19) #17
  call void @llvm.lifetime.start.p0(i64 4, ptr %20) #17
  %21 = load ptr, ptr %6, align 8
  %22 = getelementptr inbounds nuw %struct._packet_info, ptr %21, i32 0, i32 1
  %23 = load ptr, ptr %22, align 8
  call void @col_set_str(ptr noundef %23, i32 noundef 35, ptr noundef @.str.102)
  %24 = load ptr, ptr %6, align 8
  %25 = getelementptr inbounds nuw %struct._packet_info, ptr %24, i32 0, i32 1
  %26 = load ptr, ptr %25, align 8
  call void @col_clear(ptr noundef %26, i32 noundef 25)
  %27 = load ptr, ptr %5, align 8
  %28 = call zeroext i8 @tvb_get_uint8(ptr noundef %27, i32 noundef 0)
  %29 = zext i8 %28 to i32
  store i32 %29, ptr %13, align 4
  %30 = load ptr, ptr %5, align 8
  %31 = call zeroext i8 @tvb_get_uint8(ptr noundef %30, i32 noundef 1)
  store i8 %31, ptr %14, align 1
  %32 = load i8, ptr %14, align 1
  %33 = zext i8 %32 to i32
  %34 = add i32 %33, 2
  %35 = mul i32 %34, 4
  store i32 %35, ptr %15, align 4
  %36 = load i8, ptr %14, align 1
  %37 = zext i8 %36 to i32
  %38 = icmp ne i32 %37, 0
  br i1 %38, label %39, label %44

39:                                               ; preds = %4
  %40 = load i8, ptr %14, align 1
  %41 = zext i8 %40 to i32
  %42 = sub i32 %41, 1
  %43 = mul i32 %42, 4
  br label %45

44:                                               ; preds = %4
  br label %45

45:                                               ; preds = %44, %39
  %46 = phi i32 [ %43, %39 ], [ 0, %44 ]
  store i32 %46, ptr %16, align 4
  %47 = load ptr, ptr %6, align 8
  %48 = load ptr, ptr %7, align 8
  %49 = call ptr @p_ipv6_pinfo_select_root(ptr noundef %47, ptr noundef %48)
  store ptr %49, ptr %10, align 8
  %50 = load ptr, ptr %6, align 8
  %51 = load i32, ptr %15, align 4
  %52 = call ptr @p_ipv6_pinfo_add_len(ptr noundef %50, i32 noundef %51)
  %53 = load ptr, ptr %10, align 8
  %54 = load i32, ptr @proto_ah, align 4
  %55 = load ptr, ptr %5, align 8
  %56 = call ptr @proto_tree_add_item(ptr noundef %53, i32 noundef %54, ptr noundef %55, i32 noundef 0, i32 noundef -1, i32 noundef 0)
  store ptr %56, ptr %11, align 8
  %57 = load ptr, ptr %11, align 8
  %58 = load i32, ptr @ett_ah, align 4
  %59 = call ptr @proto_item_add_subtree(ptr noundef %57, i32 noundef %58)
  store ptr %59, ptr %9, align 8
  %60 = load ptr, ptr %9, align 8
  %61 = load i32, ptr @hf_ah_next_header, align 4
  %62 = load ptr, ptr %5, align 8
  %63 = call ptr @proto_tree_add_item(ptr noundef %60, i32 noundef %61, ptr noundef %62, i32 noundef 0, i32 noundef 1, i32 noundef 0)
  %64 = load ptr, ptr %9, align 8
  %65 = load i32, ptr @hf_ah_length, align 4
  %66 = load ptr, ptr %5, align 8
  %67 = call ptr @proto_tree_add_item(ptr noundef %64, i32 noundef %65, ptr noundef %66, i32 noundef 1, i32 noundef 1, i32 noundef 0)
  store ptr %67, ptr %12, align 8
  %68 = load ptr, ptr %12, align 8
  %69 = load i32, ptr %15, align 4
  call void (ptr, ptr, ...) @proto_item_append_text(ptr noundef %68, ptr noundef @.str.227, i32 noundef %69)
  %70 = load ptr, ptr %9, align 8
  %71 = load i32, ptr @hf_ah_reserved, align 4
  %72 = load ptr, ptr %5, align 8
  %73 = call ptr @proto_tree_add_item(ptr noundef %70, i32 noundef %71, ptr noundef %72, i32 noundef 2, i32 noundef 2, i32 noundef 0)
  %74 = load ptr, ptr %9, align 8
  %75 = load i32, ptr @hf_ah_spi, align 4
  %76 = load ptr, ptr %5, align 8
  %77 = call ptr @proto_tree_add_item_ret_uint(ptr noundef %74, i32 noundef %75, ptr noundef %76, i32 noundef 4, i32 noundef 4, i32 noundef 0, ptr noundef %17)
  %78 = load ptr, ptr %6, align 8
  %79 = getelementptr inbounds nuw %struct._packet_info, ptr %78, i32 0, i32 1
  %80 = load ptr, ptr %79, align 8
  %81 = load i32, ptr %17, align 4
  call void (ptr, i32, ptr, ...) @col_add_fstr(ptr noundef %80, i32 noundef 25, ptr noundef @.str.228, i32 noundef %81)
  %82 = load ptr, ptr %9, align 8
  %83 = load i32, ptr @hf_ah_sequence, align 4
  %84 = load ptr, ptr %5, align 8
  %85 = call ptr @proto_tree_add_item(ptr noundef %82, i32 noundef %83, ptr noundef %84, i32 noundef 8, i32 noundef 4, i32 noundef 0)
  %86 = load ptr, ptr %9, align 8
  %87 = load i32, ptr @hf_ah_iv, align 4
  %88 = load ptr, ptr %5, align 8
  %89 = load i32, ptr %16, align 4
  %90 = call ptr @proto_tree_add_item(ptr noundef %86, i32 noundef %87, ptr noundef %88, i32 noundef 12, i32 noundef %89, i32 noundef 0)
  %91 = load ptr, ptr %11, align 8
  %92 = load i32, ptr %15, align 4
  call void @proto_item_set_len(ptr noundef %91, i32 noundef %92)
  %93 = load ptr, ptr %6, align 8
  %94 = getelementptr inbounds nuw %struct._packet_info, ptr %93, i32 0, i32 51
  %95 = load ptr, ptr %94, align 8
  %96 = load ptr, ptr %6, align 8
  %97 = load i32, ptr @proto_ah, align 4
  %98 = load ptr, ptr %6, align 8
  %99 = getelementptr inbounds nuw %struct._packet_info, ptr %98, i32 0, i32 41
  %100 = load i8, ptr %99, align 8
  %101 = zext i8 %100 to i32
  %102 = load i32, ptr %13, align 4
  %103 = zext i32 %102 to i64
  %104 = inttoptr i64 %103 to ptr
  call void @p_add_proto_data(ptr noundef %95, ptr noundef %96, i32 noundef %97, i32 noundef %101, ptr noundef %104)
  %105 = load ptr, ptr %5, align 8
  %106 = load i32, ptr %15, align 4
  %107 = call ptr @tvb_new_subset_remaining(ptr noundef %105, i32 noundef %106)
  store ptr %107, ptr %18, align 8
  %108 = load ptr, ptr %6, align 8
  %109 = getelementptr inbounds nuw %struct._packet_info, ptr %108, i32 0, i32 17
  %110 = getelementptr inbounds nuw %struct._address, ptr %109, i32 0, i32 0
  %111 = load i32, ptr %110, align 8
  %112 = icmp eq i32 %111, 3
  br i1 %112, label %113, label %119

113:                                              ; preds = %45
  %114 = load i32, ptr %13, align 4
  %115 = load ptr, ptr %18, align 8
  %116 = load ptr, ptr %6, align 8
  %117 = load ptr, ptr %7, align 8
  %118 = load ptr, ptr %8, align 8
  call void @ipv6_dissect_next(i32 noundef %114, ptr noundef %115, ptr noundef %116, ptr noundef %117, ptr noundef %118)
  br label %146

119:                                              ; preds = %45
  %120 = load ptr, ptr %6, align 8
  %121 = getelementptr inbounds nuw %struct._packet_info, ptr %120, i32 0, i32 26
  %122 = load i32, ptr %121, align 4
  store i32 %122, ptr %20, align 4
  %123 = load ptr, ptr @ip_dissector_table, align 8
  %124 = load i32, ptr %13, align 4
  %125 = call ptr @dissector_get_uint_handle(ptr noundef %123, i32 noundef %124)
  store ptr %125, ptr %19, align 8
  %126 = load ptr, ptr %19, align 8
  %127 = icmp ne ptr %126, null
  br i1 %127, label %128, label %132

128:                                              ; preds = %119
  %129 = load i32, ptr %13, align 4
  %130 = load ptr, ptr %6, align 8
  %131 = getelementptr inbounds nuw %struct._packet_info, ptr %130, i32 0, i32 26
  store i32 %129, ptr %131, align 4
  br label %134

132:                                              ; preds = %119
  %133 = load ptr, ptr @data_handle, align 8
  store ptr %133, ptr %19, align 8
  br label %134

134:                                              ; preds = %132, %128
  %135 = load ptr, ptr %19, align 8
  %136 = load ptr, ptr %6, align 8
  %137 = load ptr, ptr %18, align 8
  call void @export_ipsec_pdu(ptr noundef %135, ptr noundef %136, ptr noundef %137)
  %138 = load ptr, ptr %19, align 8
  %139 = load ptr, ptr %18, align 8
  %140 = load ptr, ptr %6, align 8
  %141 = load ptr, ptr %7, align 8
  %142 = call i32 @call_dissector(ptr noundef %138, ptr noundef %139, ptr noundef %140, ptr noundef %141)
  %143 = load i32, ptr %20, align 4
  %144 = load ptr, ptr %6, align 8
  %145 = getelementptr inbounds nuw %struct._packet_info, ptr %144, i32 0, i32 26
  store i32 %143, ptr %145, align 4
  br label %146

146:                                              ; preds = %134, %113
  %147 = load ptr, ptr %5, align 8
  %148 = call i32 @tvb_captured_length(ptr noundef %147)
  call void @llvm.lifetime.end.p0(i64 4, ptr %20) #17
  call void @llvm.lifetime.end.p0(i64 8, ptr %19) #17
  call void @llvm.lifetime.end.p0(i64 8, ptr %18) #17
  call void @llvm.lifetime.end.p0(i64 4, ptr %17) #17
  call void @llvm.lifetime.end.p0(i64 4, ptr %16) #17
  call void @llvm.lifetime.end.p0(i64 4, ptr %15) #17
  call void @llvm.lifetime.end.p0(i64 1, ptr %14) #17
  call void @llvm.lifetime.end.p0(i64 4, ptr %13) #17
  call void @llvm.lifetime.end.p0(i64 8, ptr %12) #17
  call void @llvm.lifetime.end.p0(i64 8, ptr %11) #17
  call void @llvm.lifetime.end.p0(i64 8, ptr %10) #17
  call void @llvm.lifetime.end.p0(i64 8, ptr %9) #17
  ret i32 %148
}