; Function Attrs: null_pointer_is_valid sspstrong uwtable
define internal i32 @dissect_ah(ptr noundef %0, ptr noundef %1, ptr noundef %2, ptr noundef %3) #0 {
  %5 = alloca i32, align 4
  call void @llvm.lifetime.start.p0(i64 4, ptr nonnull %5) #20
  %6 = getelementptr inbounds nuw i8, ptr %1, i64 8
  %7 = load ptr, ptr %6, align 8
  tail call void @col_set_str(ptr noundef %7, i32 noundef 35, ptr noundef nonnull @.str.102)
  %8 = load ptr, ptr %6, align 8
  tail call void @col_clear(ptr noundef %8, i32 noundef 25)
  %9 = tail call zeroext i8 @tvb_get_uint8(ptr noundef %0, i32 noundef 0)
  %10 = zext i8 %9 to i32
  %11 = tail call zeroext i8 @tvb_get_uint8(ptr noundef %0, i32 noundef 1)
  %12 = zext i8 %11 to i32
  %13 = shl nuw nsw i32 %12, 2
  %14 = add nuw nsw i32 %13, 8
  %.not = icmp eq i8 %11, 0
  %15 = add nsw i32 %13, -4
  %16 = select i1 %.not, i32 0, i32 %15
  %17 = tail call ptr @p_ipv6_pinfo_select_root(ptr noundef %1, ptr noundef %2)
  %18 = tail call ptr @p_ipv6_pinfo_add_len(ptr noundef %1, i32 noundef %14)
  %19 = load i32, ptr @proto_ah, align 4
  %20 = tail call ptr @proto_tree_add_item(ptr noundef %17, i32 noundef %19, ptr noundef %0, i32 noundef 0, i32 noundef -1, i32 noundef 0)
  %21 = load i32, ptr @ett_ah, align 4
  %22 = tail call ptr @proto_item_add_subtree(ptr noundef %20, i32 noundef %21)
  %23 = load i32, ptr @hf_ah_next_header, align 4
  %24 = tail call ptr @proto_tree_add_item(ptr noundef %22, i32 noundef %23, ptr noundef %0, i32 noundef 0, i32 noundef 1, i32 noundef 0)
  %25 = load i32, ptr @hf_ah_length, align 4
  %26 = tail call ptr @proto_tree_add_item(ptr noundef %22, i32 noundef %25, ptr noundef %0, i32 noundef 1, i32 noundef 1, i32 noundef 0)
  tail call void (ptr, ptr, ...) @proto_item_append_text(ptr noundef %26, ptr noundef nonnull @.str.227, i32 noundef %14)
  %27 = load i32, ptr @hf_ah_reserved, align 4
  %28 = tail call ptr @proto_tree_add_item(ptr noundef %22, i32 noundef %27, ptr noundef %0, i32 noundef 2, i32 noundef 2, i32 noundef 0)
  %29 = load i32, ptr @hf_ah_spi, align 4
  %30 = call ptr @proto_tree_add_item_ret_uint(ptr noundef %22, i32 noundef %29, ptr noundef %0, i32 noundef 4, i32 noundef 4, i32 noundef 0, ptr noundef nonnull %5)
  %31 = load ptr, ptr %6, align 8
  %32 = load i32, ptr %5, align 4
  call void (ptr, i32, ptr, ...) @col_add_fstr(ptr noundef %31, i32 noundef 25, ptr noundef nonnull @.str.228, i32 noundef %32)
  %33 = load i32, ptr @hf_ah_sequence, align 4
  %34 = call ptr @proto_tree_add_item(ptr noundef %22, i32 noundef %33, ptr noundef %0, i32 noundef 8, i32 noundef 4, i32 noundef 0)
  %35 = load i32, ptr @hf_ah_iv, align 4
  %36 = call ptr @proto_tree_add_item(ptr noundef %22, i32 noundef %35, ptr noundef %0, i32 noundef 12, i32 noundef %16, i32 noundef 0)
  call void @proto_item_set_len(ptr noundef %20, i32 noundef %14)
  %37 = getelementptr inbounds nuw i8, ptr %1, i64 408
  %38 = load ptr, ptr %37, align 8
  %39 = load i32, ptr @proto_ah, align 4
  %40 = getelementptr inbounds nuw i8, ptr %1, i64 376
  %41 = load i8, ptr %40, align 8
  %42 = zext i8 %41 to i32
  %43 = zext i8 %9 to i64
  %44 = inttoptr i64 %43 to ptr
  call void @p_add_proto_data(ptr noundef %38, ptr noundef %1, i32 noundef %39, i32 noundef %42, ptr noundef %44)
  %45 = call ptr @tvb_new_subset_remaining(ptr noundef %0, i32 noundef %14)
  %46 = getelementptr inbounds nuw i8, ptr %1, i64 232
  %47 = load i32, ptr %46, align 8
  %48 = icmp eq i32 %47, 3
  br i1 %48, label %49, label %50

49:                                               ; preds = %4
  call void @ipv6_dissect_next(i32 noundef %10, ptr noundef %45, ptr noundef %1, ptr noundef %2, ptr noundef %3)
  br label %71

50:                                               ; preds = %4
  %51 = getelementptr inbounds nuw i8, ptr %1, i64 292
  %52 = load i32, ptr %51, align 4
  %53 = load ptr, ptr @ip_dissector_table, align 8
  %54 = call ptr @dissector_get_uint_handle(ptr noundef %53, i32 noundef %10)
  %.not59 = icmp eq ptr %54, null
  br i1 %.not59, label %56, label %55

55:                                               ; preds = %50
  store i32 %10, ptr %51, align 4
  br label %58

56:                                               ; preds = %50
  %57 = load ptr, ptr @data_handle, align 8
  br label %58

58:                                               ; preds = %56, %55
  %.0 = phi ptr [ %54, %55 ], [ %57, %56 ]
  %59 = load i32, ptr @exported_pdu_tap, align 4
  %60 = call zeroext i1 @have_tap_listener(i32 noundef %59)
  br i1 %60, label %61, label %export_ipsec_pdu.exit

61:                                               ; preds = %58
  %62 = call ptr @dissector_handle_get_dissector_name(ptr noundef %.0)
  %63 = call ptr @export_pdu_create_common_tags(ptr noundef %1, ptr noundef %62, i16 noundef zeroext 12)
  %64 = call i32 @tvb_captured_length(ptr noundef %45)
  %65 = getelementptr inbounds nuw i8, ptr %63, i64 16
  store i32 %64, ptr %65, align 8
  %66 = call i32 @tvb_reported_length(ptr noundef %45)
  %67 = getelementptr inbounds nuw i8, ptr %63, i64 20
  store i32 %66, ptr %67, align 4
  %68 = getelementptr inbounds nuw i8, ptr %63, i64 24
  store ptr %45, ptr %68, align 8
  %69 = load i32, ptr @exported_pdu_tap, align 4
  call void @tap_queue_packet(i32 noundef %69, ptr noundef %1, ptr noundef %63)
  br label %export_ipsec_pdu.exit

export_ipsec_pdu.exit:                            ; preds = %58, %61
  %70 = call i32 @call_dissector(ptr noundef %.0, ptr noundef %45, ptr noundef %1, ptr noundef %2)
  store i32 %52, ptr %51, align 4
  br label %71

71:                                               ; preds = %export_ipsec_pdu.exit, %49
  %72 = call i32 @tvb_captured_length(ptr noundef %0)
  call void @llvm.lifetime.end.p0(i64 4, ptr nonnull %5) #20
  ret i32 %72
}